; Function Attrs: nounwind uwtable
define dso_local ptr @lua_getlocal(ptr noundef captures(none) %0, ptr noundef readonly captures(address_is_null) %1, i32 noundef %2) local_unnamed_addr #6 {
  %4 = icmp eq ptr %1, null
  br i1 %4, label %5, label %17

5:                                                ; preds = %3
  %6 = getelementptr inbounds nuw i8, ptr %0, i64 16
  %7 = load ptr, ptr %6, align 8, !tbaa !24
  %8 = getelementptr inbounds i8, ptr %7, i64 -8
  %9 = load i8, ptr %8, align 8, !tbaa !24
  %10 = icmp eq i8 %9, 70
  br i1 %10, label %11, label %luaG_findlocal.exit.thread

11:                                               ; preds = %5
  %12 = getelementptr inbounds i8, ptr %7, i64 -16
  %13 = load ptr, ptr %12, align 8, !tbaa !24
  %14 = getelementptr inbounds nuw i8, ptr %13, i64 24
  %15 = load ptr, ptr %14, align 8, !tbaa !45
  %16 = tail call ptr @luaF_getlocalname(ptr noundef %15, i32 noundef %2, i32 noundef 0) #13
  br label %luaG_findlocal.exit.thread

17:                                               ; preds = %3
  %18 = getelementptr inbounds nuw i8, ptr %1, i64 136
  %19 = load ptr, ptr %18, align 8, !tbaa !43
  %20 = load ptr, ptr %19, align 8, !tbaa !24
  %21 = getelementptr inbounds nuw i8, ptr %20, i64 16
  %22 = getelementptr inbounds nuw i8, ptr %19, i64 60
  %23 = load i32, ptr %22, align 4, !tbaa !40
  %24 = and i32 %23, 32768
  %.not.i = icmp eq i32 %24, 0
  br i1 %.not.i, label %25, label %.thread.i

25:                                               ; preds = %17
  %26 = icmp slt i32 %2, 0
  %27 = load ptr, ptr %20, align 8, !tbaa !24
  %28 = getelementptr inbounds nuw i8, ptr %27, i64 24
  %29 = load ptr, ptr %28, align 8, !tbaa !45
  br i1 %26, label %30, label %44

30:                                               ; preds = %25
  %31 = getelementptr inbounds nuw i8, ptr %29, i64 11
  %32 = load i8, ptr %31, align 1, !tbaa !48
  %33 = and i8 %32, 1
  %.not.i.i = icmp eq i8 %33, 0
  br i1 %.not.i.i, label %luaG_findlocal.exit.thread, label %34

34:                                               ; preds = %30
  %35 = getelementptr inbounds nuw i8, ptr %19, i64 44
  %36 = load i32, ptr %35, align 4, !tbaa !24
  %37 = sub nsw i32 0, %36
  %.not11.not.i.i = icmp slt i32 %2, %37
  br i1 %.not11.not.i.i, label %luaG_findlocal.exit.thread, label %38

38:                                               ; preds = %34
  %39 = sext i32 %36 to i64
  %40 = sub nsw i64 0, %39
  %41 = getelementptr inbounds %union.StackValue, ptr %20, i64 %40
  %narrow.i.i = xor i32 %2, -1
  %42 = zext nneg i32 %narrow.i.i to i64
  %43 = getelementptr inbounds nuw %union.StackValue, ptr %41, i64 %42
  br label %luaG_findlocal.exit

44:                                               ; preds = %25
  %45 = getelementptr i8, ptr %19, i64 32
  %.val34.i = load ptr, ptr %45, align 8, !tbaa !24
  %46 = getelementptr i8, ptr %29, i64 64
  %.val.val.val.val.i = load ptr, ptr %46, align 8, !tbaa !49
  %47 = ptrtoint ptr %.val34.i to i64
  %48 = ptrtoint ptr %.val.val.val.val.i to i64
  %49 = sub i64 %47, %48
  %50 = lshr exact i64 %49, 2
  %51 = trunc i64 %50 to i32
  %52 = add nsw i32 %51, -1
  %53 = tail call ptr @luaF_getlocalname(ptr noundef %29, i32 noundef %2, i32 noundef %52) #13
  %54 = icmp eq ptr %53, null
  br i1 %54, label %.thread.i, label %75

.thread.i:                                        ; preds = %44, %17
  %55 = getelementptr inbounds nuw i8, ptr %0, i64 32
  %56 = load ptr, ptr %55, align 8, !tbaa !39
  %57 = icmp eq ptr %19, %56
  br i1 %57, label %58, label %60

58:                                               ; preds = %.thread.i
  %59 = getelementptr inbounds nuw i8, ptr %0, i64 16
  br label %63

60:                                               ; preds = %.thread.i
  %61 = getelementptr inbounds nuw i8, ptr %19, i64 24
  %62 = load ptr, ptr %61, align 8, !tbaa !50
  br label %63

63:                                               ; preds = %60, %58
  %.in.i = phi ptr [ %59, %58 ], [ %62, %60 ]
  %64 = load ptr, ptr %.in.i, align 8, !tbaa !24
  %65 = ptrtoint ptr %64 to i64
  %66 = ptrtoint ptr %21 to i64
  %67 = sub i64 %65, %66
  %68 = ashr exact i64 %67, 4
  %69 = sext i32 %2 to i64
  %70 = icmp sge i64 %68, %69
  %71 = icmp sgt i32 %2, 0
  %or.cond.i = and i1 %71, %70
  br i1 %or.cond.i, label %.thread36.i, label %luaG_findlocal.exit.thread

.thread36.i:                                      ; preds = %63
  %72 = load i32, ptr %22, align 4, !tbaa !40
  %73 = and i32 %72, 32768
  %.not32.i = icmp eq i32 %73, 0
  %74 = select i1 %.not32.i, ptr @.str, ptr @.str.1
  br label %75

75:                                               ; preds = %.thread36.i, %44
  %.128.i = phi ptr [ %53, %44 ], [ %74, %.thread36.i ]
  %76 = zext nneg i32 %2 to i64
  %77 = getelementptr %union.StackValue, ptr %21, i64 %76
  %78 = getelementptr i8, ptr %77, i64 -16
  br label %luaG_findlocal.exit

luaG_findlocal.exit:                              ; preds = %75, %38
  %.015 = phi ptr [ %43, %38 ], [ %78, %75 ]
  %.0.i = phi ptr [ @.str.9, %38 ], [ %.128.i, %75 ]
  %79 = getelementptr inbounds nuw i8, ptr %0, i64 16
  %80 = load ptr, ptr %79, align 8, !tbaa !24
  %81 = load i64, ptr %.015, align 8, !tbaa !24
  store i64 %81, ptr %80, align 8, !tbaa !24
  %82 = getelementptr inbounds nuw i8, ptr %.015, i64 8
  %83 = load i8, ptr %82, align 8, !tbaa !53
  %84 = getelementptr inbounds nuw i8, ptr %80, i64 8
  store i8 %83, ptr %84, align 8, !tbaa !53
  %85 = load ptr, ptr %79, align 8, !tbaa !24
  %86 = getelementptr inbounds nuw i8, ptr %85, i64 16
  store ptr %86, ptr %79, align 8, !tbaa !24
  br label %luaG_findlocal.exit.thread

luaG_findlocal.exit.thread:                       ; preds = %63, %34, %30, %luaG_findlocal.exit, %5, %11
  %.0 = phi ptr [ %16, %11 ], [ null, %5 ], [ %.0.i, %luaG_findlocal.exit ], [ null, %30 ], [ null, %34 ], [ null, %63 ]
  ret ptr %.0
}